target datalayout = "e-m:e-p270:32:32-p271:32:32-p272:64:64-i64:64-i128:128-f80:128-n8:16:32:64-S128"
target triple = "x86_64-pc-linux-gnu"

%struct.timeval = type { i64, i64 }
%union.pthread_mutex_t = type { %struct.__pthread_mutex_s }
%struct.__pthread_mutex_s = type { i32, i32, i32, i32, i32, i16, i16, %struct.__pthread_internal_list }
%struct.__pthread_internal_list = type { ptr, ptr }
%struct.event = type { %struct.event_callback, %union.anon.1, i32, ptr, %union.anon.3, i16, i16, %struct.timeval }
%struct.event_callback = type { %struct.anon.0, i16, i8, i8, %union.anon, ptr }
%struct.anon.0 = type { ptr, ptr }
%union.anon = type { ptr }
%union.anon.1 = type { %struct.anon.2 }
%struct.anon.2 = type { ptr, ptr }
%union.anon.3 = type { %struct.anon.4 }
%struct.anon.4 = type { %struct.anon.5, %struct.timeval }
%struct.anon.5 = type { ptr, ptr }
%struct.conn = type { ptr, i32, i8, i8, i8, i8, i8, i8, i8, i8, ptr, i32, i32, i32, %struct.event, i16, i16, ptr, ptr, i32, i32, ptr, ptr, ptr, i32, ptr, i32, i32, i32, i32, i32, i32, i32, %struct.sockaddr_in6, i32, i8, %struct.anon.9, %union.protocol_binary_request_header, i64, i64, i16, i32, i32, ptr, ptr, ptr, ptr, ptr, ptr }
%struct.sockaddr_in6 = type { i16, i16, i32, %struct.in6_addr, i32 }
%struct.in6_addr = type { %union.anon.8 }
%union.anon.8 = type { [4 x i32] }
%struct.anon.9 = type { ptr, i64, i64 }
%union.protocol_binary_request_header = type { %struct.anon.10 }
%struct.anon.10 = type { i8, i8, i16, i8, i8, i16, i32, i32, i64 }
%struct.LIBEVENT_THREAD = type { i64, ptr, %struct.thread_notify, %struct.thread_notify, %union.pthread_mutex_t, %struct.iop_head_s, i32, i32, i32, %struct.thread_stats, [3 x %struct.io_queue_s], ptr, ptr, ptr, ptr, ptr, ptr, ptr, i32 }
%struct.thread_notify = type { %struct.event, i32 }
%struct.iop_head_s = type { ptr, ptr }
%struct.thread_stats = type { %union.pthread_mutex_t, i64, i64, i64, i64, i64, i64, i64, i64, i64, i64, i64, i64, i64, i64, i64, i64, i64, i64, i64, i64, i64, i64, i64, i64, i64, i64, i64, i64, i64, i64, [64 x %struct.slab_stats], [256 x i64], i64, i64, i64 }
%struct.slab_stats = type { i64, i64, i64, i64, i64, i64, i64, i64 }
%struct.io_queue_s = type { ptr, %struct.iop_head_s, ptr, i32 }
%struct._io_pending_t = type { i8, i8, i8, ptr, ptr, ptr, ptr, ptr, %struct.anon.11, [120 x i8] }
%struct.anon.11 = type { ptr }
%struct._mc_resp = type { ptr, ptr, i32, i32, ptr, ptr, ptr, [4 x %struct.iovec], i32, i8, i8, i8, i8, i8, i16, i16, i16, %struct.sockaddr_in6, i32, [1024 x i8] }
%struct.iovec = type { ptr, i64 }

; Function Attrs: nounwind uwtable
define dso_local ptr @resp_finish(ptr noundef %0, ptr noundef %1) #0 {
  %3 = alloca ptr, align 8
  %4 = alloca ptr, align 8
  %5 = alloca ptr, align 8
  %6 = alloca ptr, align 8
  store ptr %0, ptr %3, align 8, !tbaa !10
  store ptr %1, ptr %4, align 8, !tbaa !132
  call void @llvm.lifetime.start.p0(i64 8, ptr %5) #15
  %7 = load ptr, ptr %4, align 8, !tbaa !132
  %8 = getelementptr inbounds nuw %struct._mc_resp, ptr %7, i32 0, i32 1
  %9 = load ptr, ptr %8, align 8, !tbaa !138
  store ptr %9, ptr %5, align 8, !tbaa !132
  %10 = load ptr, ptr %4, align 8, !tbaa !132
  %11 = getelementptr inbounds nuw %struct._mc_resp, ptr %10, i32 0, i32 6
  %12 = load ptr, ptr %11, align 8, !tbaa !139
  %13 = icmp ne ptr %12, null
  br i1 %13, label %14, label %20

14:                                               ; preds = %2
  %15 = load ptr, ptr %4, align 8, !tbaa !132
  %16 = getelementptr inbounds nuw %struct._mc_resp, ptr %15, i32 0, i32 6
  %17 = load ptr, ptr %16, align 8, !tbaa !139
  call void @item_remove(ptr noundef %17)
  %18 = load ptr, ptr %4, align 8, !tbaa !132
  %19 = getelementptr inbounds nuw %struct._mc_resp, ptr %18, i32 0, i32 6
  store ptr null, ptr %19, align 8, !tbaa !139
  br label %20

20:                                               ; preds = %14, %2
  %21 = load ptr, ptr %4, align 8, !tbaa !132
  %22 = getelementptr inbounds nuw %struct._mc_resp, ptr %21, i32 0, i32 4
  %23 = load ptr, ptr %22, align 8, !tbaa !140
  %24 = icmp ne ptr %23, null
  br i1 %24, label %25, label %29

25:                                               ; preds = %20
  %26 = load ptr, ptr %4, align 8, !tbaa !132
  %27 = getelementptr inbounds nuw %struct._mc_resp, ptr %26, i32 0, i32 4
  %28 = load ptr, ptr %27, align 8, !tbaa !140
  call void @free(ptr noundef %28) #15
  br label %29

29:                                               ; preds = %25, %20
  %30 = load ptr, ptr %4, align 8, !tbaa !132
  %31 = getelementptr inbounds nuw %struct._mc_resp, ptr %30, i32 0, i32 5
  %32 = load ptr, ptr %31, align 8, !tbaa !141
  %33 = icmp ne ptr %32, null
  br i1 %33, label %34, label %50

34:                                               ; preds = %29
  call void @llvm.lifetime.start.p0(i64 8, ptr %6) #15
  %35 = load ptr, ptr %4, align 8, !tbaa !132
  %36 = getelementptr inbounds nuw %struct._mc_resp, ptr %35, i32 0, i32 5
  %37 = load ptr, ptr %36, align 8, !tbaa !141
  store ptr %37, ptr %6, align 8, !tbaa !102
  %38 = load ptr, ptr %6, align 8, !tbaa !102
  %39 = getelementptr inbounds nuw %struct._io_pending_t, ptr %38, i32 0, i32 7
  %40 = load ptr, ptr %39, align 8, !tbaa !142
  %41 = load ptr, ptr %6, align 8, !tbaa !102
  call void %40(ptr noundef %41)
  %42 = load ptr, ptr %3, align 8, !tbaa !10
  %43 = getelementptr inbounds nuw %struct.conn, ptr %42, i32 0, i32 44
  %44 = load ptr, ptr %43, align 8, !tbaa !32
  %45 = getelementptr inbounds nuw %struct.LIBEVENT_THREAD, ptr %44, i32 0, i32 14
  %46 = load ptr, ptr %45, align 8, !tbaa !143
  %47 = load ptr, ptr %6, align 8, !tbaa !102
  call void @do_cache_free(ptr noundef %46, ptr noundef %47)
  %48 = load ptr, ptr %4, align 8, !tbaa !132
  %49 = getelementptr inbounds nuw %struct._mc_resp, ptr %48, i32 0, i32 5
  store ptr null, ptr %49, align 8, !tbaa !141
  call void @llvm.lifetime.end.p0(i64 8, ptr %6) #15
  br label %50

50:                                               ; preds = %34, %29
  %51 = load ptr, ptr %3, align 8, !tbaa !10
  %52 = getelementptr inbounds nuw %struct.conn, ptr %51, i32 0, i32 22
  %53 = load ptr, ptr %52, align 8, !tbaa !74
  %54 = load ptr, ptr %4, align 8, !tbaa !132
  %55 = icmp eq ptr %53, %54
  br i1 %55, label %56, label %60

56:                                               ; preds = %50
  %57 = load ptr, ptr %5, align 8, !tbaa !132
  %58 = load ptr, ptr %3, align 8, !tbaa !10
  %59 = getelementptr inbounds nuw %struct.conn, ptr %58, i32 0, i32 22
  store ptr %57, ptr %59, align 8, !tbaa !74
  br label %60

60:                                               ; preds = %56, %50
  %61 = load ptr, ptr %3, align 8, !tbaa !10
  %62 = getelementptr inbounds nuw %struct.conn, ptr %61, i32 0, i32 21
  %63 = load ptr, ptr %62, align 8, !tbaa !136
  %64 = load ptr, ptr %4, align 8, !tbaa !132
  %65 = icmp eq ptr %63, %64
  br i1 %65, label %66, label %69

66:                                               ; preds = %60
  %67 = load ptr, ptr %3, align 8, !tbaa !10
  %68 = getelementptr inbounds nuw %struct.conn, ptr %67, i32 0, i32 21
  store ptr null, ptr %68, align 8, !tbaa !136
  br label %69

69:                                               ; preds = %66, %60
  %70 = load ptr, ptr %3, align 8, !tbaa !10
  %71 = getelementptr inbounds nuw %struct.conn, ptr %70, i32 0, i32 44
  %72 = load ptr, ptr %71, align 8, !tbaa !32
  %73 = load ptr, ptr %4, align 8, !tbaa !132
  call void @resp_free(ptr noundef %72, ptr noundef %73)
  %74 = load ptr, ptr %5, align 8, !tbaa !132
  call void @llvm.lifetime.end.p0(i64 8, ptr %5) #15
  ret ptr %74
}

; Function Attrs: nounwind uwtable
define internal void @_transmit_post(ptr noundef %0, i64 noundef %1) #0 {
  %3 = alloca ptr, align 8
  %4 = alloca i64, align 8
  %5 = alloca ptr, align 8
  %6 = alloca i32, align 4
  %7 = alloca i32, align 4
  %8 = alloca ptr, align 8
  store ptr %0, ptr %3, align 8, !tbaa !10
  store i64 %1, ptr %4, align 8, !tbaa !4
  call void @llvm.lifetime.start.p0(i64 8, ptr %5) #15
  %9 = load ptr, ptr %3, align 8, !tbaa !10
  %10 = getelementptr inbounds nuw %struct.conn, ptr %9, i32 0, i32 22
  %11 = load ptr, ptr %10, align 8, !tbaa !74
  store ptr %11, ptr %5, align 8, !tbaa !132
  br label %12

12:                                               ; preds = %130, %128, %2
  %13 = load ptr, ptr %5, align 8, !tbaa !132
  %14 = icmp ne ptr %13, null
  br i1 %14, label %15, label %131

15:                                               ; preds = %12
  call void @llvm.lifetime.start.p0(i64 4, ptr %6) #15
  %16 = load ptr, ptr %5, align 8, !tbaa !132
  %17 = getelementptr inbounds nuw %struct._mc_resp, ptr %16, i32 0, i32 11
  %18 = load i8, ptr %17, align 2, !tbaa !151, !range !59, !noundef !60
  %19 = trunc i8 %18 to i1
  br i1 %19, label %20, label %24

20:                                               ; preds = %15
  %21 = load ptr, ptr %3, align 8, !tbaa !10
  %22 = load ptr, ptr %5, align 8, !tbaa !132
  %23 = call ptr @resp_finish(ptr noundef %21, ptr noundef %22)
  store ptr %23, ptr %5, align 8, !tbaa !132
  store i32 2, ptr %7, align 4
  br label %128, !llvm.loop !416

24:                                               ; preds = %15
  %25 = load i64, ptr %4, align 8, !tbaa !4
  %26 = load ptr, ptr %5, align 8, !tbaa !132
  %27 = getelementptr inbounds nuw %struct._mc_resp, ptr %26, i32 0, i32 3
  %28 = load i32, ptr %27, align 4, !tbaa !147
  %29 = sext i32 %28 to i64
  %30 = icmp sge i64 %25, %29
  br i1 %30, label %31, label %41

31:                                               ; preds = %24
  %32 = load ptr, ptr %5, align 8, !tbaa !132
  %33 = getelementptr inbounds nuw %struct._mc_resp, ptr %32, i32 0, i32 3
  %34 = load i32, ptr %33, align 4, !tbaa !147
  %35 = sext i32 %34 to i64
  %36 = load i64, ptr %4, align 8, !tbaa !4
  %37 = sub nsw i64 %36, %35
  store i64 %37, ptr %4, align 8, !tbaa !4
  %38 = load ptr, ptr %3, align 8, !tbaa !10
  %39 = load ptr, ptr %5, align 8, !tbaa !132
  %40 = call ptr @resp_finish(ptr noundef %38, ptr noundef %39)
  store ptr %40, ptr %5, align 8, !tbaa !132
  store i32 2, ptr %7, align 4
  br label %128, !llvm.loop !416

41:                                               ; preds = %24
  store i32 0, ptr %6, align 4, !tbaa !8
  br label %42

42:                                               ; preds = %114, %41
  %43 = load i32, ptr %6, align 4, !tbaa !8
  %44 = load ptr, ptr %5, align 8, !tbaa !132
  %45 = getelementptr inbounds nuw %struct._mc_resp, ptr %44, i32 0, i32 9
  %46 = load i8, ptr %45, align 4, !tbaa !148
  %47 = zext i8 %46 to i32
  %48 = icmp slt i32 %43, %47
  br i1 %48, label %49, label %117

49:                                               ; preds = %42
  call void @llvm.lifetime.start.p0(i64 8, ptr %8) #15
  %50 = load ptr, ptr %5, align 8, !tbaa !132
  %51 = getelementptr inbounds nuw %struct._mc_resp, ptr %50, i32 0, i32 7
  %52 = load i32, ptr %6, align 4, !tbaa !8
  %53 = sext i32 %52 to i64
  %54 = getelementptr inbounds [4 x %struct.iovec], ptr %51, i64 0, i64 %53
  store ptr %54, ptr %8, align 8, !tbaa !412
  %55 = load i64, ptr %4, align 8, !tbaa !4
  %56 = load ptr, ptr %8, align 8, !tbaa !412
  %57 = getelementptr inbounds nuw %struct.iovec, ptr %56, i32 0, i32 1
  %58 = load i64, ptr %57, align 8, !tbaa !154
  %59 = icmp uge i64 %55, %58
  br i1 %59, label %60, label %77

60:                                               ; preds = %49
  %61 = load ptr, ptr %8, align 8, !tbaa !412
  %62 = getelementptr inbounds nuw %struct.iovec, ptr %61, i32 0, i32 1
  %63 = load i64, ptr %62, align 8, !tbaa !154
  %64 = load ptr, ptr %5, align 8, !tbaa !132
  %65 = getelementptr inbounds nuw %struct._mc_resp, ptr %64, i32 0, i32 3
  %66 = load i32, ptr %65, align 4, !tbaa !147
  %67 = sext i32 %66 to i64
  %68 = sub i64 %67, %63
  %69 = trunc i64 %68 to i32
  store i32 %69, ptr %65, align 4, !tbaa !147
  %70 = load ptr, ptr %8, align 8, !tbaa !412
  %71 = getelementptr inbounds nuw %struct.iovec, ptr %70, i32 0, i32 1
  %72 = load i64, ptr %71, align 8, !tbaa !154
  %73 = load i64, ptr %4, align 8, !tbaa !4
  %74 = sub i64 %73, %72
  store i64 %74, ptr %4, align 8, !tbaa !4
  %75 = load ptr, ptr %8, align 8, !tbaa !412
  %76 = getelementptr inbounds nuw %struct.iovec, ptr %75, i32 0, i32 1
  store i64 0, ptr %76, align 8, !tbaa !154
  br label %110

77:                                               ; preds = %49
  %78 = load ptr, ptr %5, align 8, !tbaa !132
  %79 = getelementptr inbounds nuw %struct._mc_resp, ptr %78, i32 0, i32 10
  %80 = load i8, ptr %79, align 1, !tbaa !149
  %81 = icmp ne i8 %80, 0
  br i1 %81, label %82, label %89

82:                                               ; preds = %77
  %83 = load i32, ptr %6, align 4, !tbaa !8
  %84 = load ptr, ptr %5, align 8, !tbaa !132
  %85 = getelementptr inbounds nuw %struct._mc_resp, ptr %84, i32 0, i32 10
  %86 = load i8, ptr %85, align 1, !tbaa !149
  %87 = zext i8 %86 to i32
  %88 = icmp ne i32 %83, %87
  br i1 %88, label %89, label %97

89:                                               ; preds = %82, %77
  %90 = load ptr, ptr %8, align 8, !tbaa !412
  %91 = getelementptr inbounds nuw %struct.iovec, ptr %90, i32 0, i32 0
  %92 = load ptr, ptr %91, align 8, !tbaa !152
  %93 = load i64, ptr %4, align 8, !tbaa !4
  %94 = getelementptr inbounds i8, ptr %92, i64 %93
  %95 = load ptr, ptr %8, align 8, !tbaa !412
  %96 = getelementptr inbounds nuw %struct.iovec, ptr %95, i32 0, i32 0
  store ptr %94, ptr %96, align 8, !tbaa !152
  br label %97

97:                                               ; preds = %89, %82
  %98 = load i64, ptr %4, align 8, !tbaa !4
  %99 = load ptr, ptr %8, align 8, !tbaa !412
  %100 = getelementptr inbounds nuw %struct.iovec, ptr %99, i32 0, i32 1
  %101 = load i64, ptr %100, align 8, !tbaa !154
  %102 = sub i64 %101, %98
  store i64 %102, ptr %100, align 8, !tbaa !154
  %103 = load i64, ptr %4, align 8, !tbaa !4
  %104 = load ptr, ptr %5, align 8, !tbaa !132
  %105 = getelementptr inbounds nuw %struct._mc_resp, ptr %104, i32 0, i32 3
  %106 = load i32, ptr %105, align 4, !tbaa !147
  %107 = sext i32 %106 to i64
  %108 = sub nsw i64 %107, %103
  %109 = trunc i64 %108 to i32
  store i32 %109, ptr %105, align 4, !tbaa !147
  store i64 0, ptr %4, align 8, !tbaa !4
  store i32 4, ptr %7, align 4
  br label %111

110:                                              ; preds = %60
  store i32 0, ptr %7, align 4
  br label %111

111:                                              ; preds = %110, %97
  call void @llvm.lifetime.end.p0(i64 8, ptr %8) #15
  %112 = load i32, ptr %7, align 4
  switch i32 %112, label %132 [
    i32 0, label %113
    i32 4, label %117
  ]

113:                                              ; preds = %111
  br label %114

114:                                              ; preds = %113
  %115 = load i32, ptr %6, align 4, !tbaa !8
  %116 = add nsw i32 %115, 1
  store i32 %116, ptr %6, align 4, !tbaa !8
  br label %42, !llvm.loop !417

117:                                              ; preds = %111, %42
  %118 = load ptr, ptr %5, align 8, !tbaa !132
  %119 = getelementptr inbounds nuw %struct._mc_resp, ptr %118, i32 0, i32 3
  %120 = load i32, ptr %119, align 4, !tbaa !147
  %121 = icmp eq i32 %120, 0
  br i1 %121, label %122, label %126

122:                                              ; preds = %117
  %123 = load ptr, ptr %3, align 8, !tbaa !10
  %124 = load ptr, ptr %5, align 8, !tbaa !132
  %125 = call ptr @resp_finish(ptr noundef %123, ptr noundef %124)
  store ptr %125, ptr %5, align 8, !tbaa !132
  br label %127

126:                                              ; preds = %117
  store i32 3, ptr %7, align 4
  br label %128

127:                                              ; preds = %122
  store i32 0, ptr %7, align 4
  br label %128

128:                                              ; preds = %127, %126, %31, %20
  call void @llvm.lifetime.end.p0(i64 4, ptr %6) #15
  %129 = load i32, ptr %7, align 4
  switch i32 %129, label %132 [
    i32 0, label %130
    i32 2, label %12
    i32 3, label %131
  ]

130:                                              ; preds = %128
  br label %12, !llvm.loop !416

131:                                              ; preds = %128, %12
  call void @llvm.lifetime.end.p0(i64 8, ptr %5) #15
  ret void

132:                                              ; preds = %128, %111
  unreachable
}