; Function Attrs: nounwind uwtable
define internal fastcc void @_transmit_post(ptr noundef captures(none) %0, i64 noundef range(i64 -8, -9223372036854775808) %1) unnamed_addr #1 {
  %3 = getelementptr inbounds nuw i8, ptr %0, i64 216
  %4 = load ptr, ptr %3, align 8, !tbaa !80
  %.not75 = icmp eq ptr %4, null
  br i1 %.not75, label %.thread63, label %.lr.ph78

.lr.ph78:                                         ; preds = %2
  %5 = getelementptr inbounds nuw i8, ptr %0, i64 400
  %6 = getelementptr inbounds nuw i8, ptr %0, i64 208
  br label %7

7:                                                ; preds = %.lr.ph78, %resp_finish.exit
  %.077 = phi i64 [ %1, %.lr.ph78 ], [ %.1, %resp_finish.exit ]
  %.04076 = phi ptr [ %4, %.lr.ph78 ], [ %.141, %resp_finish.exit ]
  %8 = getelementptr inbounds nuw i8, ptr %.04076, i64 118
  %9 = load i8, ptr %8, align 2, !tbaa !107, !range !60, !noundef !61
  %10 = trunc nuw i8 %9 to i1
  br i1 %10, label %11, label %38

11:                                               ; preds = %7
  %12 = getelementptr inbounds nuw i8, ptr %.04076, i64 8
  %13 = load ptr, ptr %12, align 8, !tbaa !110
  %14 = getelementptr inbounds nuw i8, ptr %.04076, i64 40
  %15 = load ptr, ptr %14, align 8, !tbaa !111
  %.not.i = icmp eq ptr %15, null
  br i1 %.not.i, label %17, label %16

16:                                               ; preds = %11
  tail call void @item_remove(ptr noundef nonnull %15) #34
  store ptr null, ptr %14, align 8, !tbaa !111
  br label %17

17:                                               ; preds = %16, %11
  %18 = getelementptr inbounds nuw i8, ptr %.04076, i64 24
  %19 = load ptr, ptr %18, align 8, !tbaa !112
  %.not25.i = icmp eq ptr %19, null
  br i1 %.not25.i, label %21, label %20

20:                                               ; preds = %17
  tail call void @free(ptr noundef nonnull %19) #34
  br label %21

21:                                               ; preds = %20, %17
  %22 = getelementptr inbounds nuw i8, ptr %.04076, i64 32
  %23 = load ptr, ptr %22, align 8, !tbaa !113
  %.not26.i = icmp eq ptr %23, null
  br i1 %.not26.i, label %30, label %24

24:                                               ; preds = %21
  %25 = getelementptr inbounds nuw i8, ptr %23, i64 40
  %26 = load ptr, ptr %25, align 8, !tbaa !114
  tail call void %26(ptr noundef nonnull %23) #34
  %27 = load ptr, ptr %5, align 8, !tbaa !30
  %28 = getelementptr inbounds nuw i8, ptr %27, i64 6952
  %29 = load ptr, ptr %28, align 8, !tbaa !117
  tail call void @do_cache_free(ptr noundef %29, ptr noundef nonnull %23) #34
  store ptr null, ptr %22, align 8, !tbaa !113
  br label %30

30:                                               ; preds = %24, %21
  %31 = load ptr, ptr %3, align 8, !tbaa !80
  %32 = icmp eq ptr %31, %.04076
  br i1 %32, label %33, label %34

33:                                               ; preds = %30
  store ptr %13, ptr %3, align 8, !tbaa !80
  br label %34

34:                                               ; preds = %33, %30
  %35 = load ptr, ptr %6, align 8, !tbaa !118
  %36 = icmp eq ptr %35, %.04076
  br i1 %36, label %37, label %resp_finish.exit, !llvm.loop !379

37:                                               ; preds = %34
  br label %resp_finish.exit.sink.split, !llvm.loop !379

38:                                               ; preds = %7
  %39 = getelementptr inbounds nuw i8, ptr %.04076, i64 20
  %40 = load i32, ptr %39, align 4, !tbaa !126
  %41 = sext i32 %40 to i64
  %.not45 = icmp slt i64 %.077, %41
  br i1 %.not45, label %.preheader, label %45

.preheader:                                       ; preds = %38
  %42 = getelementptr inbounds nuw i8, ptr %.04076, i64 116
  %43 = load i8, ptr %42, align 4, !tbaa !162
  %.not80 = icmp eq i8 %43, 0
  br i1 %.not80, label %thread-pre-split, label %.lr.ph

.lr.ph:                                           ; preds = %.preheader
  %44 = getelementptr inbounds nuw i8, ptr %.04076, i64 48
  %wide.trip.count = zext i8 %43 to i64
  br label %73

45:                                               ; preds = %38
  %46 = sub nsw i64 %.077, %41
  %47 = getelementptr inbounds nuw i8, ptr %.04076, i64 8
  %48 = load ptr, ptr %47, align 8, !tbaa !110
  %49 = getelementptr inbounds nuw i8, ptr %.04076, i64 40
  %50 = load ptr, ptr %49, align 8, !tbaa !111
  %.not.i51 = icmp eq ptr %50, null
  br i1 %.not.i51, label %52, label %51

51:                                               ; preds = %45
  tail call void @item_remove(ptr noundef nonnull %50) #34
  store ptr null, ptr %49, align 8, !tbaa !111
  br label %52

52:                                               ; preds = %51, %45
  %53 = getelementptr inbounds nuw i8, ptr %.04076, i64 24
  %54 = load ptr, ptr %53, align 8, !tbaa !112
  %.not25.i52 = icmp eq ptr %54, null
  br i1 %.not25.i52, label %56, label %55

55:                                               ; preds = %52
  tail call void @free(ptr noundef nonnull %54) #34
  br label %56

56:                                               ; preds = %55, %52
  %57 = getelementptr inbounds nuw i8, ptr %.04076, i64 32
  %58 = load ptr, ptr %57, align 8, !tbaa !113
  %.not26.i53 = icmp eq ptr %58, null
  br i1 %.not26.i53, label %65, label %59

59:                                               ; preds = %56
  %60 = getelementptr inbounds nuw i8, ptr %58, i64 40
  %61 = load ptr, ptr %60, align 8, !tbaa !114
  tail call void %61(ptr noundef nonnull %58) #34
  %62 = load ptr, ptr %5, align 8, !tbaa !30
  %63 = getelementptr inbounds nuw i8, ptr %62, i64 6952
  %64 = load ptr, ptr %63, align 8, !tbaa !117
  tail call void @do_cache_free(ptr noundef %64, ptr noundef nonnull %58) #34
  store ptr null, ptr %57, align 8, !tbaa !113
  br label %65

65:                                               ; preds = %59, %56
  %66 = load ptr, ptr %3, align 8, !tbaa !80
  %67 = icmp eq ptr %66, %.04076
  br i1 %67, label %68, label %69

68:                                               ; preds = %65
  store ptr %48, ptr %3, align 8, !tbaa !80
  br label %69

69:                                               ; preds = %68, %65
  %70 = load ptr, ptr %6, align 8, !tbaa !118
  %71 = icmp eq ptr %70, %.04076
  br i1 %71, label %72, label %resp_finish.exit, !llvm.loop !379

72:                                               ; preds = %69
  br label %resp_finish.exit.sink.split, !llvm.loop !379

73:                                               ; preds = %.lr.ph, %89
  %74 = phi i32 [ %40, %.lr.ph ], [ %91, %89 ]
  %indvars.iv = phi i64 [ 0, %.lr.ph ], [ %indvars.iv.next, %89 ]
  %.274 = phi i64 [ %.077, %.lr.ph ], [ %92, %89 ]
  %75 = getelementptr inbounds nuw [4 x %struct.iovec], ptr %44, i64 0, i64 %indvars.iv
  %76 = getelementptr inbounds nuw i8, ptr %75, i64 8
  %77 = load i64, ptr %76, align 8, !tbaa !124
  %.not46 = icmp ult i64 %.274, %77
  br i1 %.not46, label %78, label %89

78:                                               ; preds = %73
  %79 = getelementptr inbounds nuw i8, ptr %.04076, i64 117
  %80 = load i8, ptr %79, align 1, !tbaa !163
  %.not47 = icmp ne i8 %80, 0
  %81 = zext i8 %80 to i64
  %.not48 = icmp eq i64 %indvars.iv, %81
  %or.cond = and i1 %.not47, %.not48
  br i1 %or.cond, label %85, label %82

82:                                               ; preds = %78
  %83 = load ptr, ptr %75, align 8, !tbaa !122
  %84 = getelementptr inbounds i8, ptr %83, i64 %.274
  store ptr %84, ptr %75, align 8, !tbaa !122
  br label %85

85:                                               ; preds = %82, %78
  %86 = sub i64 %77, %.274
  store i64 %86, ptr %76, align 8, !tbaa !124
  %87 = trunc i64 %.274 to i32
  %88 = sub i32 %74, %87
  store i32 %88, ptr %39, align 4, !tbaa !126
  br label %thread-pre-split

89:                                               ; preds = %73
  %90 = trunc i64 %77 to i32
  %91 = sub i32 %74, %90
  store i32 %91, ptr %39, align 4, !tbaa !126
  %92 = sub nuw i64 %.274, %77
  store i64 0, ptr %76, align 8, !tbaa !124
  %indvars.iv.next = add nuw nsw i64 %indvars.iv, 1
  %exitcond.not = icmp eq i64 %indvars.iv.next, %wide.trip.count
  br i1 %exitcond.not, label %thread-pre-split, label %73, !llvm.loop !380

thread-pre-split:                                 ; preds = %89, %.preheader, %85
  %93 = phi i32 [ %88, %85 ], [ %40, %.preheader ], [ %91, %89 ]
  %.3 = phi i64 [ 0, %85 ], [ %.077, %.preheader ], [ %92, %89 ]
  %94 = icmp eq i32 %93, 0
  br i1 %94, label %95, label %.thread63

95:                                               ; preds = %thread-pre-split
  %96 = getelementptr inbounds nuw i8, ptr %.04076, i64 8
  %97 = load ptr, ptr %96, align 8, !tbaa !110
  %98 = getelementptr inbounds nuw i8, ptr %.04076, i64 40
  %99 = load ptr, ptr %98, align 8, !tbaa !111
  %.not.i55 = icmp eq ptr %99, null
  br i1 %.not.i55, label %101, label %100

100:                                              ; preds = %95
  tail call void @item_remove(ptr noundef nonnull %99) #34
  store ptr null, ptr %98, align 8, !tbaa !111
  br label %101

101:                                              ; preds = %100, %95
  %102 = getelementptr inbounds nuw i8, ptr %.04076, i64 24
  %103 = load ptr, ptr %102, align 8, !tbaa !112
  %.not25.i56 = icmp eq ptr %103, null
  br i1 %.not25.i56, label %105, label %104

104:                                              ; preds = %101
  tail call void @free(ptr noundef nonnull %103) #34
  br label %105

105:                                              ; preds = %104, %101
  %106 = getelementptr inbounds nuw i8, ptr %.04076, i64 32
  %107 = load ptr, ptr %106, align 8, !tbaa !113
  %.not26.i57 = icmp eq ptr %107, null
  br i1 %.not26.i57, label %114, label %108

108:                                              ; preds = %105
  %109 = getelementptr inbounds nuw i8, ptr %107, i64 40
  %110 = load ptr, ptr %109, align 8, !tbaa !114
  tail call void %110(ptr noundef nonnull %107) #34
  %111 = load ptr, ptr %5, align 8, !tbaa !30
  %112 = getelementptr inbounds nuw i8, ptr %111, i64 6952
  %113 = load ptr, ptr %112, align 8, !tbaa !117
  tail call void @do_cache_free(ptr noundef %113, ptr noundef nonnull %107) #34
  store ptr null, ptr %106, align 8, !tbaa !113
  br label %114

114:                                              ; preds = %108, %105
  %115 = load ptr, ptr %3, align 8, !tbaa !80
  %116 = icmp eq ptr %115, %.04076
  br i1 %116, label %117, label %118

117:                                              ; preds = %114
  store ptr %97, ptr %3, align 8, !tbaa !80
  br label %118

118:                                              ; preds = %117, %114
  %119 = load ptr, ptr %6, align 8, !tbaa !118
  %120 = icmp eq ptr %119, %.04076
  br i1 %120, label %resp_finish.exit.sink.split, label %resp_finish.exit

resp_finish.exit.sink.split:                      ; preds = %118, %37, %72
  %.141.ph = phi ptr [ %48, %72 ], [ %13, %37 ], [ %97, %118 ]
  %.1.ph = phi i64 [ %46, %72 ], [ %.077, %37 ], [ %.3, %118 ]
  store ptr null, ptr %6, align 8, !tbaa !118
  br label %resp_finish.exit

resp_finish.exit:                                 ; preds = %resp_finish.exit.sink.split, %118, %69, %34
  %.141 = phi ptr [ %13, %34 ], [ %48, %69 ], [ %97, %118 ], [ %.141.ph, %resp_finish.exit.sink.split ]
  %.1 = phi i64 [ %.077, %34 ], [ %46, %69 ], [ %.3, %118 ], [ %.1.ph, %resp_finish.exit.sink.split ]
  %121 = load ptr, ptr %5, align 8, !tbaa !30
  tail call void @resp_free(ptr noundef %121, ptr noundef nonnull %.04076)
  %.not = icmp eq ptr %.141, null
  br i1 %.not, label %.thread63, label %7

.thread63:                                        ; preds = %resp_finish.exit, %thread-pre-split, %2
  ret void
}